target datalayout = "e-m:e-p270:32:32-p271:32:32-p272:64:64-i64:64-i128:128-f80:128-n8:16:32:64-S128"
target triple = "x86_64-pc-linux-gnu"

%struct._object = type { %union.anon, ptr }
%union.anon = type { i64 }
%struct.anon = type { i32, i32 }

@g_dict_watch_events = internal global ptr null, align 8
@.str.34 = private unnamed_addr constant [7 x i8] c"second\00", align 1

; Function Attrs: alwaysinline nounwind uwtable
define internal i32 @_Py_IsImmortal(ptr noundef %0) #5 {
  %2 = alloca ptr, align 8
  store ptr %0, ptr %2, align 8, !tbaa !3
  %3 = load ptr, ptr %2, align 8, !tbaa !3
  %4 = getelementptr inbounds nuw %struct._object, ptr %3, i32 0, i32 0
  %5 = getelementptr inbounds nuw %struct.anon, ptr %4, i32 0, i32 0
  %6 = load i32, ptr %5, align 8, !tbaa !52
  %7 = icmp slt i32 %6, 0
  %8 = zext i1 %7 to i32
  ret i32 %8
}

; Function Attrs: alwaysinline nounwind uwtable
define internal void @Py_DECREF(ptr noundef %0) #5 {
  %2 = alloca ptr, align 8
  store ptr %0, ptr %2, align 8, !tbaa !3
  %3 = load ptr, ptr %2, align 8, !tbaa !3
  %4 = call i32 @_Py_IsImmortal(ptr noundef %3)
  %5 = icmp ne i32 %4, 0
  br i1 %5, label %6, label %7

6:                                                ; preds = %1
  br label %16

7:                                                ; preds = %1
  %8 = load ptr, ptr %2, align 8, !tbaa !3
  %9 = getelementptr inbounds nuw %struct._object, ptr %8, i32 0, i32 0
  %10 = getelementptr inbounds nuw %struct.anon, ptr %9, i32 0, i32 0
  %11 = load i32, ptr %10, align 8, !tbaa !52
  %12 = add i32 %11, -1
  store i32 %12, ptr %10, align 8, !tbaa !52
  %13 = icmp eq i32 %12, 0
  br i1 %13, label %14, label %16

14:                                               ; preds = %7
  %15 = load ptr, ptr %2, align 8, !tbaa !3
  call void @_Py_Dealloc(ptr noundef %15)
  br label %16

16:                                               ; preds = %6, %14, %7
  ret void
}

; Function Attrs: nounwind uwtable
define internal i32 @dict_watch_callback_second(i32 noundef %0, ptr noundef %1, ptr noundef %2, ptr noundef %3) #0 {
  %5 = alloca i32, align 4
  %6 = alloca i32, align 4
  %7 = alloca ptr, align 8
  %8 = alloca ptr, align 8
  %9 = alloca ptr, align 8
  %10 = alloca ptr, align 8
  %11 = alloca i32, align 4
  %12 = alloca i32, align 4
  store i32 %0, ptr %6, align 4, !tbaa !10
  store ptr %1, ptr %7, align 8, !tbaa !3
  store ptr %2, ptr %8, align 8, !tbaa !3
  store ptr %3, ptr %9, align 8, !tbaa !3
  call void @llvm.lifetime.start.p0(i64 8, ptr %10) #6
  %13 = call ptr @PyUnicode_FromString(ptr noundef @.str.34)
  store ptr %13, ptr %10, align 8, !tbaa !3
  %14 = load ptr, ptr %10, align 8, !tbaa !3
  %15 = icmp eq ptr %14, null
  br i1 %15, label %16, label %17

16:                                               ; preds = %4
  store i32 -1, ptr %5, align 4
  store i32 1, ptr %11, align 4
  br label %27

17:                                               ; preds = %4
  call void @llvm.lifetime.start.p0(i64 4, ptr %12) #6
  %18 = load ptr, ptr @g_dict_watch_events, align 8, !tbaa !3
  %19 = load ptr, ptr %10, align 8, !tbaa !3
  %20 = call i32 @PyList_Append(ptr noundef %18, ptr noundef %19)
  store i32 %20, ptr %12, align 4, !tbaa !10
  %21 = load ptr, ptr %10, align 8, !tbaa !3
  call void @Py_DECREF(ptr noundef %21)
  %22 = load i32, ptr %12, align 4, !tbaa !10
  %23 = icmp slt i32 %22, 0
  br i1 %23, label %24, label %25

24:                                               ; preds = %17
  store i32 -1, ptr %5, align 4
  store i32 1, ptr %11, align 4
  br label %26

25:                                               ; preds = %17
  store i32 0, ptr %5, align 4
  store i32 1, ptr %11, align 4
  br label %26

26:                                               ; preds = %25, %24
  call void @llvm.lifetime.end.p0(i64 4, ptr %12) #6
  br label %27

27:                                               ; preds = %26, %16
  call void @llvm.lifetime.end.p0(i64 8, ptr %10) #6
  %28 = load i32, ptr %5, align 4
  ret i32 %28
}