; Function Attrs: nounwind uwtable
define internal range(i32 -1, 1) i32 @dict_watch_callback_second(i32 %0, ptr readnone captures(none) %1, ptr readnone captures(none) %2, ptr readnone captures(none) %3) #0 {
  %5 = tail call ptr @PyUnicode_FromString(ptr noundef nonnull @.str.34) #6
  %6 = icmp eq ptr %5, null
  br i1 %6, label %15, label %7

7:                                                ; preds = %4
  %8 = load ptr, ptr @g_dict_watch_events, align 8, !tbaa !21
  %9 = tail call i32 @PyList_Append(ptr noundef %8, ptr noundef nonnull %5) #6
  %10 = load i32, ptr %5, align 8, !tbaa !22
  %.not.i = icmp sgt i32 %10, -1
  br i1 %.not.i, label %11, label %Py_DECREF.exit

11:                                               ; preds = %7
  %12 = add nsw i32 %10, -1
  store i32 %12, ptr %5, align 8, !tbaa !22
  %13 = icmp eq i32 %12, 0
  br i1 %13, label %14, label %Py_DECREF.exit

14:                                               ; preds = %11
  tail call void @_Py_Dealloc(ptr noundef nonnull %5) #6
  br label %Py_DECREF.exit

Py_DECREF.exit:                                   ; preds = %7, %11, %14
  %.lobit = ashr i32 %9, 31
  br label %15

15:                                               ; preds = %4, %Py_DECREF.exit
  %.0 = phi i32 [ %.lobit, %Py_DECREF.exit ], [ -1, %4 ]
  ret i32 %.0
}